; Function Attrs: mustprogress uwtable
define noundef ptr @grpc_local_server_credentials_create(i32 noundef %connect_type) local_unnamed_addr #3 personality ptr @__gxx_personality_v0 {
entry:
  %call = tail call noalias noundef nonnull dereferenceable(48) ptr @_Znwm(i64 noundef 48) #16
  invoke void @_ZN29grpc_local_server_credentialsC1E23grpc_local_connect_type(ptr noundef nonnull align 8 dereferenceable(48) %call, i32 noundef %connect_type)
          to label %invoke.cont unwind label %lpad

invoke.cont:                                      ; preds = %entry
  ret ptr %call

lpad:                                             ; preds = %entry
  %0 = landingpad { ptr, i32 }
          cleanup
  tail call void @_ZdlPv(ptr noundef nonnull %call) #17
  resume { ptr, i32 } %0
}